; Function Attrs: mustprogress uwtable
define void @_ZN10open_spiel10liars_dice28ImperfectRecallLiarsDiceGameC2ERKSt3mapINSt7__cxx1112basic_stringIcSt11char_traitsIcESaIcEEENS_13GameParameterESt4lessIS8_ESaISt4pairIKS8_S9_EEE(ptr noundef nonnull align 8 dereferenceable(328) %0, ptr nocapture noundef nonnull readonly align 8 dereferenceable(48) %1) unnamed_addr #3 align 2 personality ptr @__gxx_personality_v0 {
  %3 = alloca %"struct.open_spiel::GameType", align 8
  %4 = alloca %"class.std::__cxx11::basic_string", align 8
  %5 = alloca %"class.std::allocator", align 1
  call void @_ZN10open_spiel8GameTypeC2ERKS0_(ptr noundef nonnull align 8 dereferenceable(146) %3, ptr noundef nonnull align 8 dereferenceable(146) @_ZN10open_spiel10liars_dice12_GLOBAL__N_124kImperfectRecallGameTypeE)
  invoke void @_ZN10open_spiel10liars_dice13LiarsDiceGameC2ERKSt3mapINSt7__cxx1112basic_stringIcSt11char_traitsIcESaIcEEENS_13GameParameterESt4lessIS8_ESaISt4pairIKS8_S9_EEENS_8GameTypeE(ptr noundef nonnull align 8 dereferenceable(324) %0, ptr noundef nonnull align 8 dereferenceable(48) %1, ptr noundef nonnull %3)
          to label %6 unwind label %20

6:                                                ; preds = %2
  %7 = getelementptr inbounds nuw i8, ptr %3, i64 96
  %8 = getelementptr inbounds i8, ptr %3, i64 112
  %9 = load ptr, ptr %8, align 8
  invoke void @_ZNSt8_Rb_treeINSt7__cxx1112basic_stringIcSt11char_traitsIcESaIcEEESt4pairIKS5_N10open_spiel13GameParameterEESt10_Select1stISA_ESt4lessIS5_ESaISA_EE8_M_eraseEPSt13_Rb_tree_nodeISA_E(ptr noundef nonnull align 8 dereferenceable(48) %7, ptr noundef %9)
          to label %_ZN10open_spiel8GameTypeD2Ev.exit unwind label %10

10:                                               ; preds = %6
  %11 = landingpad { ptr, i32 }
          catch ptr null
  %12 = extractvalue { ptr, i32 } %11, 0
  call void @__clang_call_terminate(ptr %12) #26
  unreachable

_ZN10open_spiel8GameTypeD2Ev.exit:                ; preds = %6
  %13 = getelementptr inbounds nuw i8, ptr %3, i64 32
  call void @_ZNSt7__cxx1112basic_stringIcSt11char_traitsIcESaIcEED1Ev(ptr noundef nonnull align 8 dereferenceable(32) %13) #25
  call void @_ZNSt7__cxx1112basic_stringIcSt11char_traitsIcESaIcEED1Ev(ptr noundef nonnull align 8 dereferenceable(32) %3) #25
  store ptr getelementptr inbounds inrange(-16, 216) (i8, ptr @_ZTVN10open_spiel10liars_dice28ImperfectRecallLiarsDiceGameE, i64 16), ptr %0, align 8
  call void @_ZNSaIcEC1Ev(ptr noundef nonnull align 1 dereferenceable(1) %5) #25
  %14 = invoke noundef ptr @_ZNSt7__cxx1112basic_stringIcSt11char_traitsIcESaIcEE13_M_local_dataEv(ptr noundef nonnull align 8 dereferenceable(32) %4)
          to label %.noexc unwind label %22

.noexc:                                           ; preds = %_ZN10open_spiel8GameTypeD2Ev.exit
  invoke void @_ZNSt7__cxx1112basic_stringIcSt11char_traitsIcESaIcEE12_Alloc_hiderC1EPcRKS3_(ptr noundef nonnull align 8 dereferenceable(8) %4, ptr noundef %14, ptr noundef nonnull align 1 dereferenceable(1) %5)
          to label %.noexc7 unwind label %22

.noexc7:                                          ; preds = %.noexc
  invoke void @_ZNSt7__cxx1112basic_stringIcSt11char_traitsIcESaIcEE12_M_constructIPKcEEvT_S8_St20forward_iterator_tag(ptr noundef nonnull align 8 dereferenceable(32) %4, ptr noundef nonnull @.str.77, ptr noundef nonnull getelementptr inbounds (i8, ptr @.str.77, i64 14))
          to label %_ZNSt7__cxx1112basic_stringIcSt11char_traitsIcESaIcEEC2IS3_EEPKcRKS3_.exit unwind label %15

15:                                               ; preds = %.noexc7
  %16 = landingpad { ptr, i32 }
          cleanup
  call void @_ZNSaIcED2Ev(ptr noundef nonnull align 1 dereferenceable(1) %4) #25
  br label %.body

_ZNSt7__cxx1112basic_stringIcSt11char_traitsIcESaIcEEC2IS3_EEPKcRKS3_.exit: ; preds = %.noexc7
  %17 = invoke noundef i32 @_ZNK10open_spiel4Game14ParameterValueIiEET_RKNSt7__cxx1112basic_stringIcSt11char_traitsIcESaIcEEEN4absl7debian28optionalIS2_EE(ptr noundef nonnull align 8 dereferenceable(280) %0, ptr noundef nonnull align 8 dereferenceable(32) %4, i64 17179869185)
          to label %18 unwind label %24

18:                                               ; preds = %_ZNSt7__cxx1112basic_stringIcSt11char_traitsIcESaIcEEC2IS3_EEPKcRKS3_.exit
  %19 = getelementptr inbounds nuw i8, ptr %0, i64 324
  call void @_ZNSt7__cxx1112basic_stringIcSt11char_traitsIcESaIcEED1Ev(ptr noundef nonnull align 8 dereferenceable(32) %4) #25
  call void @_ZNSaIcED1Ev(ptr noundef nonnull align 1 dereferenceable(1) %5) #25
  store i32 %17, ptr %19, align 4
  ret void

20:                                               ; preds = %2
  %21 = landingpad { ptr, i32 }
          cleanup
  call void @_ZN10open_spiel8GameTypeD2Ev(ptr noundef nonnull align 8 dereferenceable(146) %3) #25
  br label %26

22:                                               ; preds = %.noexc, %_ZN10open_spiel8GameTypeD2Ev.exit
  %23 = landingpad { ptr, i32 }
          cleanup
  br label %.body

24:                                               ; preds = %_ZNSt7__cxx1112basic_stringIcSt11char_traitsIcESaIcEEC2IS3_EEPKcRKS3_.exit
  %25 = landingpad { ptr, i32 }
          cleanup
  call void @_ZNSt7__cxx1112basic_stringIcSt11char_traitsIcESaIcEED1Ev(ptr noundef nonnull align 8 dereferenceable(32) %4) #25
  br label %.body

.body:                                            ; preds = %22, %15, %24
  %.pn = phi { ptr, i32 } [ %25, %24 ], [ %23, %22 ], [ %16, %15 ]
  call void @_ZNSaIcED1Ev(ptr noundef nonnull align 1 dereferenceable(1) %5) #25
  call void @_ZN10open_spiel10liars_dice13LiarsDiceGameD2Ev(ptr noundef nonnull align 8 dereferenceable(324) %0) #25
  br label %26

26:                                               ; preds = %.body, %20
  %.pn.pn = phi { ptr, i32 } [ %.pn, %.body ], [ %21, %20 ]
  resume { ptr, i32 } %.pn.pn
}